; ModuleID = '1/2130.c'
source_filename = "1/2130.c"
target datalayout = "e-m:e-p270:32:32-p271:32:32-p272:64:64-i64:64-f80:128-n8:16:32:64-S128"
target triple = "x86_64-pc-linux-gnu"

@.str = private unnamed_addr constant [3 x i8] c"%d\00", align 1
@.str.1 = private unnamed_addr constant [4 x i8] c"%d\0A\00", align 1

; Function Attrs: noinline nounwind uwtable
define dso_local i32 @main() #0 {
  %1 = alloca i32, align 4
  %2 = alloca i32, align 4
  %3 = alloca i32, align 4
  %4 = alloca i32, align 4
  %5 = alloca i32, align 4
  store i32 0, i32* %1, align 4
  %6 = call i32 (i8*, ...) @__isoc99_scanf(i8* getelementptr inbounds ([3 x i8], [3 x i8]* @.str, i64 0, i64 0), i32* %5)
  store i32 0, i32* %4, align 4
  br label %7

7:                                                ; preds = %17, %0
  %8 = load i32, i32* %4, align 4
  %9 = load i32, i32* %5, align 4
  %10 = icmp slt i32 %8, %9
  br i1 %10, label %11, label %20

11:                                               ; preds = %7
  %12 = call i32 (i8*, ...) @__isoc99_scanf(i8* getelementptr inbounds ([3 x i8], [3 x i8]* @.str, i64 0, i64 0), i32* %2)
  %13 = load i32, i32* %2, align 4
  %14 = call i32 @find(i32 %13, i32 1)
  store i32 %14, i32* %3, align 4
  %15 = load i32, i32* %3, align 4
  %16 = call i32 (i8*, ...) @printf(i8* getelementptr inbounds ([4 x i8], [4 x i8]* @.str.1, i64 0, i64 0), i32 %15)
  br label %17

17:                                               ; preds = %11
  %18 = load i32, i32* %4, align 4
  %19 = add nsw i32 %18, 1
  store i32 %19, i32* %4, align 4
  br label %7

20:                                               ; preds = %7
  %21 = load i32, i32* %1, align 4
  ret i32 %21
}

declare dso_local i32 @__isoc99_scanf(i8*, ...) #1

; Function Attrs: noinline nounwind uwtable
define dso_local i32 @find(i32 %0, i32 %1) #0 {
  %3 = alloca i32, align 4
  %4 = alloca i32, align 4
  %5 = alloca i32, align 4
  %6 = alloca i32, align 4
  %7 = alloca i32, align 4
  %8 = alloca i32, align 4
  %9 = alloca i32, align 4
  %10 = alloca i32, align 4
  %11 = alloca i32, align 4
  store i32 %0, i32* %4, align 4
  store i32 %1, i32* %5, align 4
  store i32 1, i32* %7, align 4
  store i32 0, i32* %8, align 4
  store i32 0, i32* %9, align 4
  store i32 0, i32* %11, align 4
  store i32 2, i32* %6, align 4
  br label %12

12:                                               ; preds = %25, %2
  %13 = load i32, i32* %6, align 4
  %14 = load i32, i32* %4, align 4
  %15 = icmp sle i32 %13, %14
  br i1 %15, label %16, label %28

16:                                               ; preds = %12
  %17 = load i32, i32* %4, align 4
  %18 = load i32, i32* %6, align 4
  %19 = srem i32 %17, %18
  %20 = icmp eq i32 %19, 0
  br i1 %20, label %21, label %24

21:                                               ; preds = %16
  %22 = load i32, i32* %8, align 4
  %23 = add nsw i32 %22, 1
  store i32 %23, i32* %8, align 4
  br label %24

24:                                               ; preds = %21, %16
  br label %25

25:                                               ; preds = %24
  %26 = load i32, i32* %6, align 4
  %27 = add nsw i32 %26, 1
  store i32 %27, i32* %6, align 4
  br label %12

28:                                               ; preds = %12
  %29 = load i32, i32* %8, align 4
  %30 = icmp eq i32 %29, 1
  br i1 %30, label %34, label %31

31:                                               ; preds = %28
  %32 = load i32, i32* %4, align 4
  %33 = icmp eq i32 %32, 1
  br i1 %33, label %34, label %35

34:                                               ; preds = %31, %28
  store i32 1, i32* %3, align 4
  br label %71

35:                                               ; preds = %31
  store i32 2, i32* %6, align 4
  br label %36

36:                                               ; preds = %65, %35
  %37 = load i32, i32* %6, align 4
  %38 = load i32, i32* %4, align 4
  %39 = icmp sle i32 %37, %38
  br i1 %39, label %40, label %68

40:                                               ; preds = %36
  %41 = load i32, i32* %4, align 4
  %42 = load i32, i32* %6, align 4
  %43 = srem i32 %41, %42
  %44 = icmp eq i32 %43, 0
  br i1 %44, label %45, label %64

45:                                               ; preds = %40
  %46 = load i32, i32* %4, align 4
  %47 = load i32, i32* %6, align 4
  %48 = sdiv i32 %46, %47
  %49 = load i32, i32* %6, align 4
  %50 = icmp sge i32 %48, %49
  br i1 %50, label %51, label %64

51:                                               ; preds = %45
  %52 = load i32, i32* %6, align 4
  %53 = load i32, i32* %5, align 4
  %54 = icmp sge i32 %52, %53
  br i1 %54, label %55, label %64

55:                                               ; preds = %51
  %56 = load i32, i32* %6, align 4
  store i32 %56, i32* %5, align 4
  %57 = load i32, i32* %7, align 4
  %58 = load i32, i32* %4, align 4
  %59 = load i32, i32* %6, align 4
  %60 = sdiv i32 %58, %59
  %61 = load i32, i32* %5, align 4
  %62 = call i32 @find(i32 %60, i32 %61)
  %63 = add nsw i32 %57, %62
  store i32 %63, i32* %7, align 4
  br label %64

64:                                               ; preds = %55, %51, %45, %40
  br label %65

65:                                               ; preds = %64
  %66 = load i32, i32* %6, align 4
  %67 = add nsw i32 %66, 1
  store i32 %67, i32* %6, align 4
  br label %36

68:                                               ; preds = %36
  br label %69

69:                                               ; preds = %68
  %70 = load i32, i32* %7, align 4
  store i32 %70, i32* %3, align 4
  br label %71

71:                                               ; preds = %69, %34
  %72 = load i32, i32* %3, align 4
  ret i32 %72
}

declare dso_local i32 @printf(i8*, ...) #1


!llvm.module.flags = !{!0}
!llvm.ident = !{!1}

!0 = !{i32 1, !"wchar_size", i32 4}
!1 = !{!"clang version 10.0.0-4ubuntu1 "}
